target datalayout = "e-m:e-p270:32:32-p271:32:32-p272:64:64-i64:64-i128:128-f80:128-n8:16:32:64-S128"
target triple = "x86_64-pc-linux-gnu"

%"struct.Stockfish::(anonymous namespace)::PairsData" = type { i8, i8, i8, i32, i64, i64, ptr, ptr, ptr, i32, ptr, i64, ptr, %"class.std::vector.38", %"class.std::vector.43", [7 x i32], [8 x i64], [8 x i32], [4 x i16] }
%"class.std::vector.38" = type { %"struct.std::_Vector_base.39" }
%"struct.std::_Vector_base.39" = type { %"struct.std::_Vector_base<unsigned long, std::allocator<unsigned long>>::_Vector_impl" }
%"struct.std::_Vector_base<unsigned long, std::allocator<unsigned long>>::_Vector_impl" = type { %"struct.std::_Vector_base<unsigned long, std::allocator<unsigned long>>::_Vector_impl_data" }
%"struct.std::_Vector_base<unsigned long, std::allocator<unsigned long>>::_Vector_impl_data" = type { ptr, ptr, ptr }
%"class.std::vector.43" = type { %"struct.std::_Vector_base.44" }
%"struct.std::_Vector_base.44" = type { %"struct.std::_Vector_base<unsigned char, std::allocator<unsigned char>>::_Vector_impl" }
%"struct.std::_Vector_base<unsigned char, std::allocator<unsigned char>>::_Vector_impl" = type { %"struct.std::_Vector_base<unsigned char, std::allocator<unsigned char>>::_Vector_impl_data" }
%"struct.std::_Vector_base<unsigned char, std::allocator<unsigned char>>::_Vector_impl_data" = type { ptr, ptr, ptr }
%"struct.std::_Bvector_base" = type { %"struct.std::_Bvector_base<std::allocator<bool>>::_Bvector_impl" }
%"struct.std::_Bvector_base<std::allocator<bool>>::_Bvector_impl" = type { %"struct.std::_Bvector_base<std::allocator<bool>>::_Bvector_impl_data" }
%"struct.std::_Bvector_base<std::allocator<bool>>::_Bvector_impl_data" = type { %"struct.std::_Bit_iterator", %"struct.std::_Bit_iterator", ptr }
%"struct.std::_Bit_iterator" = type { %"struct.std::_Bit_iterator_base.base", [4 x i8] }
%"struct.std::_Bit_iterator_base.base" = type <{ ptr, i32 }>
%"struct.std::_Bit_reference" = type { ptr, i64 }
%"struct.Stockfish::(anonymous namespace)::LR" = type { [3 x i8] }
%"struct.std::_Bit_iterator_base" = type <{ ptr, i32, [4 x i8] }>

; Function Attrs: mustprogress nounwind uwtable
define linkonce_odr dso_local void @_ZNSt18_Bit_iterator_base7_M_incrEl(ptr noundef nonnull align 8 dereferenceable(12) %0, i64 noundef %1) #4 comdat align 2 {
  %3 = alloca ptr, align 8
  %4 = alloca i64, align 8
  %5 = alloca i64, align 8
  store ptr %0, ptr %3, align 8
  store i64 %1, ptr %4, align 8
  %6 = load ptr, ptr %3, align 8
  %7 = load i64, ptr %4, align 8
  %8 = getelementptr inbounds %"struct.std::_Bit_iterator_base", ptr %6, i32 0, i32 1
  %9 = load i32, ptr %8, align 8
  %10 = zext i32 %9 to i64
  %11 = add nsw i64 %7, %10
  store i64 %11, ptr %5, align 8
  %12 = load i64, ptr %5, align 8
  %13 = sdiv i64 %12, 64
  %14 = getelementptr inbounds %"struct.std::_Bit_iterator_base", ptr %6, i32 0, i32 0
  %15 = load ptr, ptr %14, align 8
  %16 = getelementptr inbounds i64, ptr %15, i64 %13
  store ptr %16, ptr %14, align 8
  %17 = load i64, ptr %5, align 8
  %18 = srem i64 %17, 64
  store i64 %18, ptr %5, align 8
  %19 = load i64, ptr %5, align 8
  %20 = icmp slt i64 %19, 0
  br i1 %20, label %21, label %27

21:                                               ; preds = %2
  %22 = load i64, ptr %5, align 8
  %23 = add nsw i64 %22, 64
  store i64 %23, ptr %5, align 8
  %24 = getelementptr inbounds %"struct.std::_Bit_iterator_base", ptr %6, i32 0, i32 0
  %25 = load ptr, ptr %24, align 8
  %26 = getelementptr inbounds i64, ptr %25, i32 -1
  store ptr %26, ptr %24, align 8
  br label %27

27:                                               ; preds = %21, %2
  %28 = load i64, ptr %5, align 8
  %29 = trunc i64 %28 to i32
  %30 = getelementptr inbounds %"struct.std::_Bit_iterator_base", ptr %6, i32 0, i32 1
  store i32 %29, ptr %30, align 8
  ret void
}

; Function Attrs: mustprogress nounwind uwtable
define linkonce_odr dso_local void @_ZNSt14_Bit_referenceC2EPmm(ptr noundef nonnull align 8 dereferenceable(16) %0, ptr noundef %1, i64 noundef %2) unnamed_addr #4 comdat align 2 {
  %4 = alloca ptr, align 8
  %5 = alloca ptr, align 8
  %6 = alloca i64, align 8
  store ptr %0, ptr %4, align 8
  store ptr %1, ptr %5, align 8
  store i64 %2, ptr %6, align 8
  %7 = load ptr, ptr %4, align 8
  %8 = getelementptr inbounds %"struct.std::_Bit_reference", ptr %7, i32 0, i32 0
  %9 = load ptr, ptr %5, align 8
  store ptr %9, ptr %8, align 8
  %10 = getelementptr inbounds %"struct.std::_Bit_reference", ptr %7, i32 0, i32 1
  %11 = load i64, ptr %6, align 8
  store i64 %11, ptr %10, align 8
  ret void
}

; Function Attrs: mustprogress nounwind uwtable
define linkonce_odr dso_local noundef nonnull align 8 dereferenceable(12) ptr @_ZNSt13_Bit_iteratorpLEl(ptr noundef nonnull align 8 dereferenceable(12) %0, i64 noundef %1) #4 comdat align 2 {
  %3 = alloca ptr, align 8
  %4 = alloca i64, align 8
  store ptr %0, ptr %3, align 8
  store i64 %1, ptr %4, align 8
  %5 = load ptr, ptr %3, align 8
  %6 = load i64, ptr %4, align 8
  call void @_ZNSt18_Bit_iterator_base7_M_incrEl(ptr noundef nonnull align 8 dereferenceable(12) %5, i64 noundef %6)
  ret ptr %5
}

; Function Attrs: mustprogress nounwind uwtable
define linkonce_odr dso_local void @_ZNSt18_Bit_iterator_baseC2EPmj(ptr noundef nonnull align 8 dereferenceable(12) %0, ptr noundef %1, i32 noundef %2) unnamed_addr #4 comdat align 2 {
  %4 = alloca ptr, align 8
  %5 = alloca ptr, align 8
  %6 = alloca i32, align 4
  store ptr %0, ptr %4, align 8
  store ptr %1, ptr %5, align 8
  store i32 %2, ptr %6, align 4
  %7 = load ptr, ptr %4, align 8
  %8 = getelementptr inbounds %"struct.std::_Bit_iterator_base", ptr %7, i32 0, i32 0
  %9 = load ptr, ptr %5, align 8
  store ptr %9, ptr %8, align 8
  %10 = getelementptr inbounds %"struct.std::_Bit_iterator_base", ptr %7, i32 0, i32 1
  %11 = load i32, ptr %6, align 4
  store i32 %11, ptr %10, align 8
  ret void
}

; Function Attrs: mustprogress nounwind uwtable
define linkonce_odr dso_local { ptr, i64 } @_ZNKSt13_Bit_iteratordeEv(ptr noundef nonnull align 8 dereferenceable(12) %0) #4 comdat align 2 {
  %2 = alloca %"struct.std::_Bit_reference", align 8
  %3 = alloca ptr, align 8
  store ptr %0, ptr %3, align 8
  %4 = load ptr, ptr %3, align 8
  %5 = getelementptr inbounds %"struct.std::_Bit_iterator_base", ptr %4, i32 0, i32 0
  %6 = load ptr, ptr %5, align 8
  %7 = getelementptr inbounds %"struct.std::_Bit_iterator_base", ptr %4, i32 0, i32 1
  %8 = load i32, ptr %7, align 8
  %9 = zext i32 %8 to i64
  %10 = shl i64 1, %9
  call void @_ZNSt14_Bit_referenceC2EPmm(ptr noundef nonnull align 8 dereferenceable(16) %2, ptr noundef %6, i64 noundef %10)
  %11 = load { ptr, i64 }, ptr %2, align 8
  ret { ptr, i64 } %11
}

; Function Attrs: mustprogress nounwind uwtable
define linkonce_odr dso_local { ptr, i32 } @_ZStplRKSt13_Bit_iteratorl(ptr noundef nonnull align 8 dereferenceable(12) %0, i64 noundef %1) #4 comdat {
  %3 = alloca %"struct.std::_Bit_iterator", align 8
  %4 = alloca ptr, align 8
  %5 = alloca i64, align 8
  store ptr %0, ptr %4, align 8
  store i64 %1, ptr %5, align 8
  %6 = load ptr, ptr %4, align 8
  call void @llvm.memcpy.p0.p0.i64(ptr align 8 %3, ptr align 8 %6, i64 16, i1 false)
  %7 = load i64, ptr %5, align 8
  %8 = call noundef nonnull align 8 dereferenceable(12) ptr @_ZNSt13_Bit_iteratorpLEl(ptr noundef nonnull align 8 dereferenceable(12) %3, i64 noundef %7)
  %9 = load { ptr, i32 }, ptr %3, align 8
  ret { ptr, i32 } %9
}

; Function Attrs: mustprogress nounwind uwtable
define linkonce_odr dso_local void @_ZNSt13_Bit_iteratorC2EPmj(ptr noundef nonnull align 8 dereferenceable(12) %0, ptr noundef %1, i32 noundef %2) unnamed_addr #4 comdat align 2 {
  %4 = alloca ptr, align 8
  %5 = alloca ptr, align 8
  %6 = alloca i32, align 4
  store ptr %0, ptr %4, align 8
  store ptr %1, ptr %5, align 8
  store i32 %2, ptr %6, align 4
  %7 = load ptr, ptr %4, align 8
  %8 = load ptr, ptr %5, align 8
  %9 = load i32, ptr %6, align 4
  call void @_ZNSt18_Bit_iterator_baseC2EPmj(ptr noundef nonnull align 8 dereferenceable(12) %7, ptr noundef %8, i32 noundef %9)
  ret void
}

; Function Attrs: mustprogress nounwind uwtable
define linkonce_odr dso_local { ptr, i64 } @_ZNKSt13_Bit_iteratorixEl(ptr noundef nonnull align 8 dereferenceable(12) %0, i64 noundef %1) #4 comdat align 2 {
  %3 = alloca %"struct.std::_Bit_reference", align 8
  %4 = alloca ptr, align 8
  %5 = alloca i64, align 8
  %6 = alloca %"struct.std::_Bit_iterator", align 8
  store ptr %0, ptr %4, align 8
  store i64 %1, ptr %5, align 8
  %7 = load ptr, ptr %4, align 8
  %8 = load i64, ptr %5, align 8
  %9 = call { ptr, i32 } @_ZStplRKSt13_Bit_iteratorl(ptr noundef nonnull align 8 dereferenceable(12) %7, i64 noundef %8)
  %10 = getelementptr inbounds { ptr, i32 }, ptr %6, i32 0, i32 0
  %11 = extractvalue { ptr, i32 } %9, 0
  store ptr %11, ptr %10, align 8
  %12 = getelementptr inbounds { ptr, i32 }, ptr %6, i32 0, i32 1
  %13 = extractvalue { ptr, i32 } %9, 1
  store i32 %13, ptr %12, align 8
  %14 = call { ptr, i64 } @_ZNKSt13_Bit_iteratordeEv(ptr noundef nonnull align 8 dereferenceable(12) %6)
  %15 = getelementptr inbounds { ptr, i64 }, ptr %3, i32 0, i32 0
  %16 = extractvalue { ptr, i64 } %14, 0
  store ptr %16, ptr %15, align 8
  %17 = getelementptr inbounds { ptr, i64 }, ptr %3, i32 0, i32 1
  %18 = extractvalue { ptr, i64 } %14, 1
  store i64 %18, ptr %17, align 8
  %19 = load { ptr, i64 }, ptr %3, align 8
  ret { ptr, i64 } %19
}

; Function Attrs: mustprogress nounwind uwtable
define linkonce_odr dso_local { ptr, i32 } @_ZNSt6vectorIbSaIbEE5beginEv(ptr noundef nonnull align 8 dereferenceable(40) %0) #4 comdat align 2 {
  %2 = alloca %"struct.std::_Bit_iterator", align 8
  %3 = alloca ptr, align 8
  store ptr %0, ptr %3, align 8
  %4 = load ptr, ptr %3, align 8
  %5 = getelementptr inbounds %"struct.std::_Bvector_base", ptr %4, i32 0, i32 0
  %6 = getelementptr inbounds %"struct.std::_Bvector_base<std::allocator<bool>>::_Bvector_impl_data", ptr %5, i32 0, i32 0
  %7 = getelementptr inbounds %"struct.std::_Bit_iterator_base", ptr %6, i32 0, i32 0
  %8 = load ptr, ptr %7, align 8
  call void @_ZNSt13_Bit_iteratorC2EPmj(ptr noundef nonnull align 8 dereferenceable(12) %2, ptr noundef %8, i32 noundef 0)
  %9 = load { ptr, i32 }, ptr %2, align 8
  ret { ptr, i32 } %9
}

; Function Attrs: mustprogress nounwind uwtable
define linkonce_odr dso_local noundef nonnull align 1 dereferenceable(1) ptr @_ZNSt6vectorIhSaIhEEixEm(ptr noundef nonnull align 8 dereferenceable(24) %0, i64 noundef %1) #4 comdat align 2 {
  %3 = alloca ptr, align 8
  %4 = alloca i64, align 8
  store ptr %0, ptr %3, align 8
  store i64 %1, ptr %4, align 8
  %5 = load ptr, ptr %3, align 8
  %6 = getelementptr inbounds %"struct.std::_Vector_base.44", ptr %5, i32 0, i32 0
  %7 = getelementptr inbounds %"struct.std::_Vector_base<unsigned char, std::allocator<unsigned char>>::_Vector_impl_data", ptr %6, i32 0, i32 0
  %8 = load ptr, ptr %7, align 8
  %9 = load i64, ptr %4, align 8
  %10 = getelementptr inbounds i8, ptr %8, i64 %9
  ret ptr %10
}

; Function Attrs: mustprogress nounwind uwtable
define linkonce_odr dso_local noundef zeroext i1 @_ZNKSt14_Bit_referencecvbEv(ptr noundef nonnull align 8 dereferenceable(16) %0) #4 comdat align 2 {
  %2 = alloca ptr, align 8
  store ptr %0, ptr %2, align 8
  %3 = load ptr, ptr %2, align 8
  %4 = getelementptr inbounds %"struct.std::_Bit_reference", ptr %3, i32 0, i32 0
  %5 = load ptr, ptr %4, align 8
  %6 = load i64, ptr %5, align 8
  %7 = getelementptr inbounds %"struct.std::_Bit_reference", ptr %3, i32 0, i32 1
  %8 = load i64, ptr %7, align 8
  %9 = and i64 %6, %8
  %10 = icmp ne i64 %9, 0
  %11 = xor i1 %10, true
  %12 = xor i1 %11, true
  ret i1 %12
}

; Function Attrs: mustprogress nounwind uwtable
define internal noundef zeroext i16 @_ZN9Stockfish12_GLOBAL__N_12LR3getILNS1_4SideE0EEEtv(ptr noundef nonnull align 1 dereferenceable(3) %0) #4 align 2 {
  %2 = alloca ptr, align 8
  store ptr %0, ptr %2, align 8
  %3 = load ptr, ptr %2, align 8
  %4 = getelementptr inbounds %"struct.Stockfish::(anonymous namespace)::LR", ptr %3, i32 0, i32 0
  %5 = getelementptr inbounds [3 x i8], ptr %4, i64 0, i64 1
  %6 = load i8, ptr %5, align 1
  %7 = zext i8 %6 to i32
  %8 = and i32 %7, 15
  %9 = shl i32 %8, 8
  %10 = getelementptr inbounds %"struct.Stockfish::(anonymous namespace)::LR", ptr %3, i32 0, i32 0
  %11 = getelementptr inbounds [3 x i8], ptr %10, i64 0, i64 0
  %12 = load i8, ptr %11, align 1
  %13 = zext i8 %12 to i32
  %14 = or i32 %9, %13
  %15 = trunc i32 %14 to i16
  ret i16 %15
}

; Function Attrs: mustprogress nounwind uwtable
define internal noundef zeroext i16 @_ZN9Stockfish12_GLOBAL__N_12LR3getILNS1_4SideE1EEEtv(ptr noundef nonnull align 1 dereferenceable(3) %0) #4 align 2 {
  %2 = alloca ptr, align 8
  store ptr %0, ptr %2, align 8
  %3 = load ptr, ptr %2, align 8
  %4 = getelementptr inbounds %"struct.Stockfish::(anonymous namespace)::LR", ptr %3, i32 0, i32 0
  %5 = getelementptr inbounds [3 x i8], ptr %4, i64 0, i64 2
  %6 = load i8, ptr %5, align 1
  %7 = zext i8 %6 to i32
  %8 = shl i32 %7, 4
  %9 = getelementptr inbounds %"struct.Stockfish::(anonymous namespace)::LR", ptr %3, i32 0, i32 0
  %10 = getelementptr inbounds [3 x i8], ptr %9, i64 0, i64 1
  %11 = load i8, ptr %10, align 1
  %12 = zext i8 %11 to i32
  %13 = ashr i32 %12, 4
  %14 = or i32 %8, %13
  %15 = trunc i32 %14 to i16
  ret i16 %15
}

; Function Attrs: mustprogress nounwind uwtable
define linkonce_odr dso_local noundef nonnull align 8 dereferenceable(16) ptr @_ZNSt14_Bit_referenceaSEb(ptr noundef nonnull align 8 dereferenceable(16) %0, i1 noundef zeroext %1) #4 comdat align 2 {
  %3 = alloca ptr, align 8
  %4 = alloca i8, align 1
  store ptr %0, ptr %3, align 8
  %5 = zext i1 %1 to i8
  store i8 %5, ptr %4, align 1
  %6 = load ptr, ptr %3, align 8
  %7 = load i8, ptr %4, align 1
  %8 = trunc i8 %7 to i1
  br i1 %8, label %9, label %16

9:                                                ; preds = %2
  %10 = getelementptr inbounds %"struct.std::_Bit_reference", ptr %6, i32 0, i32 1
  %11 = load i64, ptr %10, align 8
  %12 = getelementptr inbounds %"struct.std::_Bit_reference", ptr %6, i32 0, i32 0
  %13 = load ptr, ptr %12, align 8
  %14 = load i64, ptr %13, align 8
  %15 = or i64 %14, %11
  store i64 %15, ptr %13, align 8
  br label %24

16:                                               ; preds = %2
  %17 = getelementptr inbounds %"struct.std::_Bit_reference", ptr %6, i32 0, i32 1
  %18 = load i64, ptr %17, align 8
  %19 = xor i64 %18, -1
  %20 = getelementptr inbounds %"struct.std::_Bit_reference", ptr %6, i32 0, i32 0
  %21 = load ptr, ptr %20, align 8
  %22 = load i64, ptr %21, align 8
  %23 = and i64 %22, %19
  store i64 %23, ptr %21, align 8
  br label %24

24:                                               ; preds = %16, %9
  ret ptr %6
}

; Function Attrs: mustprogress nounwind uwtable
define linkonce_odr dso_local { ptr, i64 } @_ZNSt6vectorIbSaIbEEixEm(ptr noundef nonnull align 8 dereferenceable(40) %0, i64 noundef %1) #4 comdat align 2 {
  %3 = alloca %"struct.std::_Bit_reference", align 8
  %4 = alloca ptr, align 8
  %5 = alloca i64, align 8
  %6 = alloca %"struct.std::_Bit_iterator", align 8
  store ptr %0, ptr %4, align 8
  store i64 %1, ptr %5, align 8
  %7 = load ptr, ptr %4, align 8
  %8 = call { ptr, i32 } @_ZNSt6vectorIbSaIbEE5beginEv(ptr noundef nonnull align 8 dereferenceable(40) %7) #3
  %9 = getelementptr inbounds { ptr, i32 }, ptr %6, i32 0, i32 0
  %10 = extractvalue { ptr, i32 } %8, 0
  store ptr %10, ptr %9, align 8
  %11 = getelementptr inbounds { ptr, i32 }, ptr %6, i32 0, i32 1
  %12 = extractvalue { ptr, i32 } %8, 1
  store i32 %12, ptr %11, align 8
  %13 = load i64, ptr %5, align 8
  %14 = call { ptr, i64 } @_ZNKSt13_Bit_iteratorixEl(ptr noundef nonnull align 8 dereferenceable(12) %6, i64 noundef %13)
  %15 = getelementptr inbounds { ptr, i64 }, ptr %3, i32 0, i32 0
  %16 = extractvalue { ptr, i64 } %14, 0
  store ptr %16, ptr %15, align 8
  %17 = getelementptr inbounds { ptr, i64 }, ptr %3, i32 0, i32 1
  %18 = extractvalue { ptr, i64 } %14, 1
  store i64 %18, ptr %17, align 8
  %19 = load { ptr, i64 }, ptr %3, align 8
  ret { ptr, i64 } %19
}

; Function Attrs: mustprogress nounwind uwtable
define internal noundef zeroext i8 @_ZN9Stockfish12_GLOBAL__N_110set_symlenEPNS0_9PairsDataEtRSt6vectorIbSaIbEE(ptr noundef %0, i16 noundef zeroext %1, ptr noundef nonnull align 8 dereferenceable(40) %2) #4 {
  %4 = alloca i8, align 1
  %5 = alloca ptr, align 8
  %6 = alloca i16, align 2
  %7 = alloca ptr, align 8
  %8 = alloca %"struct.std::_Bit_reference", align 8
  %9 = alloca i16, align 2
  %10 = alloca i16, align 2
  %11 = alloca %"struct.std::_Bit_reference", align 8
  %12 = alloca %"struct.std::_Bit_reference", align 8
  store ptr %0, ptr %5, align 8
  store i16 %1, ptr %6, align 2
  store ptr %2, ptr %7, align 8
  %13 = load ptr, ptr %7, align 8
  %14 = load i16, ptr %6, align 2
  %15 = zext i16 %14 to i64
  %16 = call { ptr, i64 } @_ZNSt6vectorIbSaIbEEixEm(ptr noundef nonnull align 8 dereferenceable(40) %13, i64 noundef %15)
  %17 = getelementptr inbounds { ptr, i64 }, ptr %8, i32 0, i32 0
  %18 = extractvalue { ptr, i64 } %16, 0
  store ptr %18, ptr %17, align 8
  %19 = getelementptr inbounds { ptr, i64 }, ptr %8, i32 0, i32 1
  %20 = extractvalue { ptr, i64 } %16, 1
  store i64 %20, ptr %19, align 8
  %21 = call noundef nonnull align 8 dereferenceable(16) ptr @_ZNSt14_Bit_referenceaSEb(ptr noundef nonnull align 8 dereferenceable(16) %8, i1 noundef zeroext true) #3
  %22 = load ptr, ptr %5, align 8
  %23 = getelementptr inbounds %"struct.Stockfish::(anonymous namespace)::PairsData", ptr %22, i32 0, i32 7
  %24 = load ptr, ptr %23, align 8
  %25 = load i16, ptr %6, align 2
  %26 = zext i16 %25 to i64
  %27 = getelementptr inbounds %"struct.Stockfish::(anonymous namespace)::LR", ptr %24, i64 %26
  %28 = call noundef zeroext i16 @_ZN9Stockfish12_GLOBAL__N_12LR3getILNS1_4SideE1EEEtv(ptr noundef nonnull align 1 dereferenceable(3) %27)
  store i16 %28, ptr %9, align 2
  %29 = load i16, ptr %9, align 2
  %30 = zext i16 %29 to i32
  %31 = icmp eq i32 %30, 4095
  br i1 %31, label %32, label %33

32:                                               ; preds = %3
  store i8 0, ptr %4, align 1
  br label %100

33:                                               ; preds = %3
  %34 = load ptr, ptr %5, align 8
  %35 = getelementptr inbounds %"struct.Stockfish::(anonymous namespace)::PairsData", ptr %34, i32 0, i32 7
  %36 = load ptr, ptr %35, align 8
  %37 = load i16, ptr %6, align 2
  %38 = zext i16 %37 to i64
  %39 = getelementptr inbounds %"struct.Stockfish::(anonymous namespace)::LR", ptr %36, i64 %38
  %40 = call noundef zeroext i16 @_ZN9Stockfish12_GLOBAL__N_12LR3getILNS1_4SideE0EEEtv(ptr noundef nonnull align 1 dereferenceable(3) %39)
  store i16 %40, ptr %10, align 2
  %41 = load ptr, ptr %7, align 8
  %42 = load i16, ptr %10, align 2
  %43 = zext i16 %42 to i64
  %44 = call { ptr, i64 } @_ZNSt6vectorIbSaIbEEixEm(ptr noundef nonnull align 8 dereferenceable(40) %41, i64 noundef %43)
  %45 = getelementptr inbounds { ptr, i64 }, ptr %11, i32 0, i32 0
  %46 = extractvalue { ptr, i64 } %44, 0
  store ptr %46, ptr %45, align 8
  %47 = getelementptr inbounds { ptr, i64 }, ptr %11, i32 0, i32 1
  %48 = extractvalue { ptr, i64 } %44, 1
  store i64 %48, ptr %47, align 8
  %49 = call noundef zeroext i1 @_ZNKSt14_Bit_referencecvbEv(ptr noundef nonnull align 8 dereferenceable(16) %11) #3
  %50 = xor i1 %49, true
  br i1 %50, label %51, label %61

51:                                               ; preds = %33
  %52 = load ptr, ptr %5, align 8
  %53 = load i16, ptr %10, align 2
  %54 = load ptr, ptr %7, align 8
  %55 = call noundef zeroext i8 @_ZN9Stockfish12_GLOBAL__N_110set_symlenEPNS0_9PairsDataEtRSt6vectorIbSaIbEE(ptr noundef %52, i16 noundef zeroext %53, ptr noundef nonnull align 8 dereferenceable(40) %54)
  %56 = load ptr, ptr %5, align 8
  %57 = getelementptr inbounds %"struct.Stockfish::(anonymous namespace)::PairsData", ptr %56, i32 0, i32 14
  %58 = load i16, ptr %10, align 2
  %59 = zext i16 %58 to i64
  %60 = call noundef nonnull align 1 dereferenceable(1) ptr @_ZNSt6vectorIhSaIhEEixEm(ptr noundef nonnull align 8 dereferenceable(24) %57, i64 noundef %59) #3
  store i8 %55, ptr %60, align 1
  br label %61

61:                                               ; preds = %51, %33
  %62 = load ptr, ptr %7, align 8
  %63 = load i16, ptr %9, align 2
  %64 = zext i16 %63 to i64
  %65 = call { ptr, i64 } @_ZNSt6vectorIbSaIbEEixEm(ptr noundef nonnull align 8 dereferenceable(40) %62, i64 noundef %64)
  %66 = getelementptr inbounds { ptr, i64 }, ptr %12, i32 0, i32 0
  %67 = extractvalue { ptr, i64 } %65, 0
  store ptr %67, ptr %66, align 8
  %68 = getelementptr inbounds { ptr, i64 }, ptr %12, i32 0, i32 1
  %69 = extractvalue { ptr, i64 } %65, 1
  store i64 %69, ptr %68, align 8
  %70 = call noundef zeroext i1 @_ZNKSt14_Bit_referencecvbEv(ptr noundef nonnull align 8 dereferenceable(16) %12) #3
  %71 = xor i1 %70, true
  br i1 %71, label %72, label %82

72:                                               ; preds = %61
  %73 = load ptr, ptr %5, align 8
  %74 = load i16, ptr %9, align 2
  %75 = load ptr, ptr %7, align 8
  %76 = call noundef zeroext i8 @_ZN9Stockfish12_GLOBAL__N_110set_symlenEPNS0_9PairsDataEtRSt6vectorIbSaIbEE(ptr noundef %73, i16 noundef zeroext %74, ptr noundef nonnull align 8 dereferenceable(40) %75)
  %77 = load ptr, ptr %5, align 8
  %78 = getelementptr inbounds %"struct.Stockfish::(anonymous namespace)::PairsData", ptr %77, i32 0, i32 14
  %79 = load i16, ptr %9, align 2
  %80 = zext i16 %79 to i64
  %81 = call noundef nonnull align 1 dereferenceable(1) ptr @_ZNSt6vectorIhSaIhEEixEm(ptr noundef nonnull align 8 dereferenceable(24) %78, i64 noundef %80) #3
  store i8 %76, ptr %81, align 1
  br label %82

82:                                               ; preds = %72, %61
  %83 = load ptr, ptr %5, align 8
  %84 = getelementptr inbounds %"struct.Stockfish::(anonymous namespace)::PairsData", ptr %83, i32 0, i32 14
  %85 = load i16, ptr %10, align 2
  %86 = zext i16 %85 to i64
  %87 = call noundef nonnull align 1 dereferenceable(1) ptr @_ZNSt6vectorIhSaIhEEixEm(ptr noundef nonnull align 8 dereferenceable(24) %84, i64 noundef %86) #3
  %88 = load i8, ptr %87, align 1
  %89 = zext i8 %88 to i32
  %90 = load ptr, ptr %5, align 8
  %91 = getelementptr inbounds %"struct.Stockfish::(anonymous namespace)::PairsData", ptr %90, i32 0, i32 14
  %92 = load i16, ptr %9, align 2
  %93 = zext i16 %92 to i64
  %94 = call noundef nonnull align 1 dereferenceable(1) ptr @_ZNSt6vectorIhSaIhEEixEm(ptr noundef nonnull align 8 dereferenceable(24) %91, i64 noundef %93) #3
  %95 = load i8, ptr %94, align 1
  %96 = zext i8 %95 to i32
  %97 = add nsw i32 %89, %96
  %98 = add nsw i32 %97, 1
  %99 = trunc i32 %98 to i8
  store i8 %99, ptr %4, align 1
  br label %100

100:                                              ; preds = %82, %32
  %101 = load i8, ptr %4, align 1
  ret i8 %101
}