; Function Attrs: mustprogress nofree nosync nounwind memory(readwrite, inaccessiblemem: none) uwtable
define internal fastcc noundef zeroext i8 @_ZN9Stockfish12_GLOBAL__N_110set_symlenEPNS0_9PairsDataEtRSt6vectorIbSaIbEE(ptr noundef %0, i16 noundef zeroext %1, ptr noundef nonnull align 8 dereferenceable(40) %2) unnamed_addr #13 {
  %4 = zext i16 %1 to i64
  %5 = load ptr, ptr %2, align 8
  %6 = lshr i16 %1, 6
  %.zext = zext nneg i16 %6 to i64
  %7 = getelementptr inbounds i64, ptr %5, i64 %.zext
  %8 = and i64 %4, 63
  %9 = shl nuw i64 1, %8
  %10 = load i64, ptr %7, align 8
  %11 = or i64 %10, %9
  store i64 %11, ptr %7, align 8
  %12 = getelementptr inbounds i8, ptr %0, i64 32
  %13 = load ptr, ptr %12, align 8
  %14 = getelementptr inbounds %"struct.Stockfish::(anonymous namespace)::LR", ptr %13, i64 %4
  %15 = getelementptr i8, ptr %14, i64 1
  %.val = load i8, ptr %15, align 1
  %16 = getelementptr i8, ptr %14, i64 2
  %.val25 = load i8, ptr %16, align 1
  %17 = zext i8 %.val25 to i16
  %18 = shl nuw nsw i16 %17, 4
  %19 = lshr i8 %.val, 4
  %20 = zext nneg i8 %19 to i16
  %21 = or disjoint i16 %18, %20
  %22 = icmp eq i16 %21, 4095
  br i1 %22, label %65, label %23

23:                                               ; preds = %3
  %.val26 = load i8, ptr %14, align 1
  %24 = and i8 %.val, 15
  %25 = zext nneg i8 %24 to i16
  %26 = shl nuw nsw i16 %25, 8
  %27 = zext i8 %.val26 to i16
  %28 = or disjoint i16 %26, %27
  %29 = zext nneg i16 %28 to i64
  %30 = load ptr, ptr %2, align 8
  %31 = lshr i16 %28, 6
  %.zext41 = zext nneg i16 %31 to i64
  %32 = getelementptr inbounds i64, ptr %30, i64 %.zext41
  %33 = and i64 %29, 63
  %34 = shl nuw i64 1, %33
  %35 = load i64, ptr %32, align 8
  %36 = and i64 %34, %35
  %.not = icmp eq i64 %36, 0
  br i1 %.not, label %37, label %42

37:                                               ; preds = %23
  %38 = tail call fastcc noundef zeroext i8 @_ZN9Stockfish12_GLOBAL__N_110set_symlenEPNS0_9PairsDataEtRSt6vectorIbSaIbEE(ptr noundef nonnull %0, i16 noundef zeroext %28, ptr noundef nonnull align 8 dereferenceable(40) %2)
  %39 = getelementptr inbounds i8, ptr %0, i64 104
  %40 = load ptr, ptr %39, align 8
  %41 = getelementptr inbounds i8, ptr %40, i64 %29
  store i8 %38, ptr %41, align 1
  %.pre = load ptr, ptr %2, align 8
  br label %42

42:                                               ; preds = %37, %23
  %43 = phi ptr [ %.pre, %37 ], [ %30, %23 ]
  %44 = zext nneg i16 %21 to i64
  %45 = lshr i16 %17, 2
  %.zext43 = zext nneg i16 %45 to i64
  %46 = getelementptr inbounds i64, ptr %43, i64 %.zext43
  %47 = and i64 %44, 63
  %48 = shl nuw i64 1, %47
  %49 = load i64, ptr %46, align 8
  %50 = and i64 %49, %48
  %.not44 = icmp eq i64 %50, 0
  br i1 %.not44, label %51, label %56

51:                                               ; preds = %42
  %52 = tail call fastcc noundef zeroext i8 @_ZN9Stockfish12_GLOBAL__N_110set_symlenEPNS0_9PairsDataEtRSt6vectorIbSaIbEE(ptr noundef nonnull %0, i16 noundef zeroext %21, ptr noundef nonnull align 8 dereferenceable(40) %2)
  %53 = getelementptr inbounds i8, ptr %0, i64 104
  %54 = load ptr, ptr %53, align 8
  %55 = getelementptr inbounds i8, ptr %54, i64 %44
  store i8 %52, ptr %55, align 1
  br label %56

56:                                               ; preds = %51, %42
  %57 = getelementptr inbounds i8, ptr %0, i64 104
  %58 = load ptr, ptr %57, align 8
  %59 = getelementptr inbounds i8, ptr %58, i64 %29
  %60 = load i8, ptr %59, align 1
  %61 = getelementptr inbounds i8, ptr %58, i64 %44
  %62 = load i8, ptr %61, align 1
  %63 = add i8 %60, 1
  %64 = add i8 %63, %62
  br label %65

65:                                               ; preds = %3, %56
  %.0 = phi i8 [ %64, %56 ], [ 0, %3 ]
  ret i8 %.0
}